target datalayout = "e-m:e-p270:32:32-p271:32:32-p272:64:64-i64:64-i128:128-f80:128-n8:16:32:64-S128"
target triple = "x86_64-pc-linux-gnu"

@stdin = external global ptr, align 8

; Function Attrs: nounwind uwtable
define internal i32 @decodesigs() #0 {
  %1 = alloca i32, align 4
  %2 = alloca [32769 x i8], align 16
  %3 = load ptr, ptr @stdin, align 8
  %4 = call i32 @fflush(ptr noundef %3)
  br label %5

5:                                                ; preds = %22, %0
  %6 = getelementptr inbounds [32769 x i8], ptr %2, i64 0, i64 0
  %7 = load ptr, ptr @stdin, align 8
  %8 = call ptr @fgets(ptr noundef %6, i32 noundef 32769, ptr noundef %7)
  %9 = icmp ne ptr %8, null
  br i1 %9, label %10, label %23

10:                                               ; preds = %5
  %11 = getelementptr inbounds [32769 x i8], ptr %2, i64 0, i64 0
  %12 = call i32 @cli_chomp(ptr noundef %11)
  %13 = getelementptr inbounds [32769 x i8], ptr %2, i64 0, i64 0
  %14 = call i64 @strlen(ptr noundef %13) #14
  %15 = icmp ne i64 %14, 0
  br i1 %15, label %17, label %16

16:                                               ; preds = %10
  br label %23

17:                                               ; preds = %10
  %18 = getelementptr inbounds [32769 x i8], ptr %2, i64 0, i64 0
  %19 = call i32 @decodesig(ptr noundef %18, i32 noundef -1)
  %20 = icmp eq i32 %19, -1
  br i1 %20, label %21, label %22

21:                                               ; preds = %17
  store i32 -1, ptr %1, align 4
  br label %24

22:                                               ; preds = %17
  br label %5

23:                                               ; preds = %16, %5
  store i32 0, ptr %1, align 4
  br label %24

24:                                               ; preds = %23, %21
  %25 = load i32, ptr %1, align 4
  ret i32 %25
}