; Function Attrs: nounwind uwtable
define internal fastcc noundef i32 @decodesigs() unnamed_addr #0 {
  %1 = alloca [32769 x i8], align 16
  %2 = load ptr, ptr @stdin, align 8
  %3 = tail call i32 @fflush(ptr noundef %2)
  br label %4

4:                                                ; preds = %9, %0
  %5 = load ptr, ptr @stdin, align 8
  %6 = call ptr @fgets(ptr noundef nonnull %1, i32 noundef 32769, ptr noundef %5)
  %.not = icmp eq ptr %6, null
  br i1 %.not, label %12, label %7

7:                                                ; preds = %4
  %8 = call i32 @cli_chomp(ptr noundef nonnull %1) #25
  %char0 = load i8, ptr %1, align 16
  %.not1 = icmp eq i8 %char0, 0
  br i1 %.not1, label %12, label %9

9:                                                ; preds = %7
  %10 = call fastcc i32 @decodesig(ptr noundef nonnull %1, i32 noundef -1), !range !5
  %11 = icmp eq i32 %10, -1
  br i1 %11, label %12, label %4

12:                                               ; preds = %4, %7, %9
  %.0 = phi i32 [ -1, %9 ], [ 0, %7 ], [ 0, %4 ]
  ret i32 %.0
}